; ModuleID = '56/793.c'
source_filename = "56/793.c"
target datalayout = "e-m:e-p270:32:32-p271:32:32-p272:64:64-i64:64-f80:128-n8:16:32:64-S128"
target triple = "x86_64-pc-linux-gnu"

@.str = private unnamed_addr constant [3 x i8] c"%d\00", align 1
@.str.1 = private unnamed_addr constant [4 x i8] c"%d\0A\00", align 1

; Function Attrs: noinline nounwind uwtable
define dso_local void @main() #0 {
  %1 = alloca [5 x i32], align 16
  %2 = alloca i32, align 4
  %3 = alloca i32, align 4
  %4 = alloca i32, align 4
  %5 = alloca i32, align 4
  %6 = call i32 (i8*, ...) @__isoc99_scanf(i8* getelementptr inbounds ([3 x i8], [3 x i8]* @.str, i64 0, i64 0), i32* %2)
  %7 = load i32, i32* %2, align 4
  store i32 %7, i32* %3, align 4
  store i32 0, i32* %4, align 4
  br label %8

8:                                                ; preds = %14, %0
  %9 = load i32, i32* %3, align 4
  %10 = icmp sge i32 %9, 1
  br i1 %10, label %11, label %17

11:                                               ; preds = %8
  %12 = load i32, i32* %3, align 4
  %13 = sdiv i32 %12, 10
  store i32 %13, i32* %3, align 4
  br label %14

14:                                               ; preds = %11
  %15 = load i32, i32* %4, align 4
  %16 = add nsw i32 %15, 1
  store i32 %16, i32* %4, align 4
  br label %8

17:                                               ; preds = %8
  store i32 0, i32* %5, align 4
  br label %18

18:                                               ; preds = %31, %17
  %19 = load i32, i32* %5, align 4
  %20 = load i32, i32* %4, align 4
  %21 = sub nsw i32 %20, 1
  %22 = icmp sle i32 %19, %21
  br i1 %22, label %23, label %34

23:                                               ; preds = %18
  %24 = load i32, i32* %2, align 4
  %25 = srem i32 %24, 10
  %26 = load i32, i32* %5, align 4
  %27 = sext i32 %26 to i64
  %28 = getelementptr inbounds [5 x i32], [5 x i32]* %1, i64 0, i64 %27
  store i32 %25, i32* %28, align 4
  %29 = load i32, i32* %2, align 4
  %30 = sdiv i32 %29, 10
  store i32 %30, i32* %2, align 4
  br label %31

31:                                               ; preds = %23
  %32 = load i32, i32* %5, align 4
  %33 = add nsw i32 %32, 1
  store i32 %33, i32* %5, align 4
  br label %18

34:                                               ; preds = %18
  store i32 0, i32* %5, align 4
  br label %35

35:                                               ; preds = %46, %34
  %36 = load i32, i32* %5, align 4
  %37 = load i32, i32* %4, align 4
  %38 = sub nsw i32 %37, 2
  %39 = icmp sle i32 %36, %38
  br i1 %39, label %40, label %49

40:                                               ; preds = %35
  %41 = load i32, i32* %5, align 4
  %42 = sext i32 %41 to i64
  %43 = getelementptr inbounds [5 x i32], [5 x i32]* %1, i64 0, i64 %42
  %44 = load i32, i32* %43, align 4
  %45 = call i32 (i8*, ...) @printf(i8* getelementptr inbounds ([3 x i8], [3 x i8]* @.str, i64 0, i64 0), i32 %44)
  br label %46

46:                                               ; preds = %40
  %47 = load i32, i32* %5, align 4
  %48 = add nsw i32 %47, 1
  store i32 %48, i32* %5, align 4
  br label %35

49:                                               ; preds = %35
  %50 = load i32, i32* %4, align 4
  %51 = sub nsw i32 %50, 1
  %52 = sext i32 %51 to i64
  %53 = getelementptr inbounds [5 x i32], [5 x i32]* %1, i64 0, i64 %52
  %54 = load i32, i32* %53, align 4
  %55 = call i32 (i8*, ...) @printf(i8* getelementptr inbounds ([4 x i8], [4 x i8]* @.str.1, i64 0, i64 0), i32 %54)
  ret void
}

declare dso_local i32 @__isoc99_scanf(i8*, ...) #1

declare dso_local i32 @printf(i8*, ...) #1


!llvm.module.flags = !{!0}
!llvm.ident = !{!1}

!0 = !{i32 1, !"wchar_size", i32 4}
!1 = !{!"clang version 10.0.0-4ubuntu1 "}
